; Function Attrs: nounwind uwtable
define dso_local void @Curl_hash_clean(ptr noundef %0) local_unnamed_addr #1 {
  %.not.i = icmp eq ptr %0, null
  br i1 %.not.i, label %Curl_hash_clean_with_criterium.exit, label %2

2:                                                ; preds = %1
  %3 = load ptr, ptr %0, align 8, !tbaa !4
  %.not21.i = icmp eq ptr %3, null
  br i1 %.not21.i, label %Curl_hash_clean_with_criterium.exit, label %.preheader.i

.preheader.i:                                     ; preds = %2
  %4 = getelementptr inbounds nuw i8, ptr %0, i64 32
  %5 = load i64, ptr %4, align 8, !tbaa !15
  %.not29.i = icmp eq i64 %5, 0
  br i1 %.not29.i, label %Curl_hash_clean_with_criterium.exit, label %.lr.ph28.i

.lr.ph28.i:                                       ; preds = %.preheader.i
  %6 = getelementptr inbounds nuw i8, ptr %0, i64 40
  br label %.lr.ph28.split.us.i

.lr.ph28.split.us.i:                              ; preds = %._crit_edge.split.us.us.i, %.lr.ph28.i
  %.027.us.i = phi i64 [ %10, %._crit_edge.split.us.us.i ], [ 0, %.lr.ph28.i ]
  %7 = load ptr, ptr %0, align 8, !tbaa !4
  %8 = getelementptr inbounds nuw %struct.Curl_llist, ptr %7, i64 %.027.us.i
  %9 = tail call ptr @Curl_llist_head(ptr noundef %8) #9
  %.not2225.us.i = icmp eq ptr %9, null
  br i1 %.not2225.us.i, label %._crit_edge.split.us.us.i, label %.lr.ph.us.i

._crit_edge.split.us.us.i:                        ; preds = %.lr.ph.us.i, %.lr.ph28.split.us.i
  %10 = add nuw i64 %.027.us.i, 1
  %11 = load i64, ptr %4, align 8, !tbaa !15
  %12 = icmp ult i64 %10, %11
  br i1 %12, label %.lr.ph28.split.us.i, label %Curl_hash_clean_with_criterium.exit, !llvm.loop !29

.lr.ph.us.i:                                      ; preds = %.lr.ph28.split.us.i, %.lr.ph.us.i
  %.01826.us.us.i = phi ptr [ %14, %.lr.ph.us.i ], [ %9, %.lr.ph28.split.us.i ]
  %13 = tail call ptr @Curl_node_elem(ptr noundef nonnull %.01826.us.us.i) #9
  %14 = tail call ptr @Curl_node_next(ptr noundef nonnull %.01826.us.us.i) #9
  tail call void @Curl_node_uremove(ptr noundef nonnull %.01826.us.us.i, ptr noundef nonnull %0) #9
  %15 = load i64, ptr %6, align 8, !tbaa !14
  %16 = add i64 %15, -1
  store i64 %16, ptr %6, align 8, !tbaa !14
  %.not22.us.us.i = icmp eq ptr %14, null
  br i1 %.not22.us.us.i, label %._crit_edge.split.us.us.i, label %.lr.ph.us.i, !llvm.loop !30

Curl_hash_clean_with_criterium.exit:              ; preds = %._crit_edge.split.us.us.i, %1, %2, %.preheader.i
  ret void
}